; ModuleID = '2/1314.c'
source_filename = "2/1314.c"
target datalayout = "e-m:e-p270:32:32-p271:32:32-p272:64:64-i64:64-f80:128-n8:16:32:64-S128"
target triple = "x86_64-pc-linux-gnu"

%struct.book = type { i32, [100 x i8] }

@.str = private unnamed_addr constant [3 x i8] c"%d\00", align 1
@.str.1 = private unnamed_addr constant [6 x i8] c"%d %s\00", align 1
@.str.2 = private unnamed_addr constant [7 x i8] c"%c\0A%d\0A\00", align 1
@.str.3 = private unnamed_addr constant [4 x i8] c"%d\0A\00", align 1

; Function Attrs: noinline nounwind uwtable
define dso_local void @main() #0 {
  %1 = alloca [1000 x %struct.book], align 16
  %2 = alloca i32, align 4
  %3 = alloca i32, align 4
  %4 = alloca i32, align 4
  %5 = alloca i32, align 4
  %6 = alloca i32, align 4
  %7 = alloca i32, align 4
  %8 = alloca i32, align 4
  %9 = alloca [1000 x i32], align 16
  %10 = alloca [27 x i8], align 16
  %11 = alloca i32, align 4
  store i32 0, i32* %6, align 4
  %12 = call i32 (i8*, ...) @__isoc99_scanf(i8* getelementptr inbounds ([3 x i8], [3 x i8]* @.str, i64 0, i64 0), i32* %2)
  store i32 0, i32* %3, align 4
  br label %13

13:                                               ; preds = %28, %0
  %14 = load i32, i32* %3, align 4
  %15 = load i32, i32* %2, align 4
  %16 = icmp slt i32 %14, %15
  br i1 %16, label %17, label %31

17:                                               ; preds = %13
  %18 = load i32, i32* %3, align 4
  %19 = sext i32 %18 to i64
  %20 = getelementptr inbounds [1000 x %struct.book], [1000 x %struct.book]* %1, i64 0, i64 %19
  %21 = getelementptr inbounds %struct.book, %struct.book* %20, i32 0, i32 0
  %22 = load i32, i32* %3, align 4
  %23 = sext i32 %22 to i64
  %24 = getelementptr inbounds [1000 x %struct.book], [1000 x %struct.book]* %1, i64 0, i64 %23
  %25 = getelementptr inbounds %struct.book, %struct.book* %24, i32 0, i32 1
  %26 = getelementptr inbounds [100 x i8], [100 x i8]* %25, i64 0, i64 0
  %27 = call i32 (i8*, ...) @__isoc99_scanf(i8* getelementptr inbounds ([6 x i8], [6 x i8]* @.str.1, i64 0, i64 0), i32* %21, i8* %26)
  br label %28

28:                                               ; preds = %17
  %29 = load i32, i32* %3, align 4
  %30 = add nsw i32 %29, 1
  store i32 %30, i32* %3, align 4
  br label %13

31:                                               ; preds = %13
  %32 = getelementptr inbounds [1000 x %struct.book], [1000 x %struct.book]* %1, i64 0, i64 0
  %33 = getelementptr inbounds %struct.book, %struct.book* %32, i32 0, i32 1
  %34 = getelementptr inbounds [100 x i8], [100 x i8]* %33, i64 0, i64 0
  %35 = load i8, i8* %34, align 4
  %36 = getelementptr inbounds [27 x i8], [27 x i8]* %10, i64 0, i64 0
  store i8 %35, i8* %36, align 16
  store i32 1, i32* %6, align 4
  %37 = getelementptr inbounds [1000 x i32], [1000 x i32]* %9, i64 0, i64 0
  store i32 0, i32* %37, align 16
  store i32 0, i32* %3, align 4
  br label %38

38:                                               ; preds = %116, %31
  %39 = load i32, i32* %3, align 4
  %40 = load i32, i32* %2, align 4
  %41 = icmp slt i32 %39, %40
  br i1 %41, label %42, label %119

42:                                               ; preds = %38
  store i32 0, i32* %4, align 4
  br label %43

43:                                               ; preds = %112, %42
  %44 = load i32, i32* %3, align 4
  %45 = sext i32 %44 to i64
  %46 = getelementptr inbounds [1000 x %struct.book], [1000 x %struct.book]* %1, i64 0, i64 %45
  %47 = getelementptr inbounds %struct.book, %struct.book* %46, i32 0, i32 1
  %48 = load i32, i32* %4, align 4
  %49 = sext i32 %48 to i64
  %50 = getelementptr inbounds [100 x i8], [100 x i8]* %47, i64 0, i64 %49
  %51 = load i8, i8* %50, align 1
  %52 = sext i8 %51 to i32
  %53 = icmp ne i32 %52, 0
  br i1 %53, label %54, label %115

54:                                               ; preds = %43
  store i32 0, i32* %11, align 4
  store i32 0, i32* %5, align 4
  br label %55

55:                                               ; preds = %86, %54
  %56 = load i32, i32* %5, align 4
  %57 = load i32, i32* %6, align 4
  %58 = icmp slt i32 %56, %57
  br i1 %58, label %59, label %89

59:                                               ; preds = %55
  %60 = load i32, i32* %3, align 4
  %61 = sext i32 %60 to i64
  %62 = getelementptr inbounds [1000 x %struct.book], [1000 x %struct.book]* %1, i64 0, i64 %61
  %63 = getelementptr inbounds %struct.book, %struct.book* %62, i32 0, i32 1
  %64 = load i32, i32* %4, align 4
  %65 = sext i32 %64 to i64
  %66 = getelementptr inbounds [100 x i8], [100 x i8]* %63, i64 0, i64 %65
  %67 = load i8, i8* %66, align 1
  %68 = sext i8 %67 to i32
  %69 = load i32, i32* %5, align 4
  %70 = sext i32 %69 to i64
  %71 = getelementptr inbounds [27 x i8], [27 x i8]* %10, i64 0, i64 %70
  %72 = load i8, i8* %71, align 1
  %73 = sext i8 %72 to i32
  %74 = icmp eq i32 %68, %73
  br i1 %74, label %75, label %84

75:                                               ; preds = %59
  %76 = load i32, i32* %5, align 4
  %77 = sext i32 %76 to i64
  %78 = getelementptr inbounds [1000 x i32], [1000 x i32]* %9, i64 0, i64 %77
  %79 = load i32, i32* %78, align 4
  %80 = add nsw i32 %79, 1
  %81 = load i32, i32* %5, align 4
  %82 = sext i32 %81 to i64
  %83 = getelementptr inbounds [1000 x i32], [1000 x i32]* %9, i64 0, i64 %82
  store i32 %80, i32* %83, align 4
  store i32 0, i32* %11, align 4
  br label %89

84:                                               ; preds = %59
  store i32 1, i32* %11, align 4
  br label %85

85:                                               ; preds = %84
  br label %86

86:                                               ; preds = %85
  %87 = load i32, i32* %5, align 4
  %88 = add nsw i32 %87, 1
  store i32 %88, i32* %5, align 4
  br label %55

89:                                               ; preds = %75, %55
  %90 = load i32, i32* %11, align 4
  %91 = icmp eq i32 %90, 1
  br i1 %91, label %92, label %111

92:                                               ; preds = %89
  %93 = load i32, i32* %6, align 4
  %94 = add nsw i32 %93, 1
  store i32 %94, i32* %6, align 4
  %95 = load i32, i32* %3, align 4
  %96 = sext i32 %95 to i64
  %97 = getelementptr inbounds [1000 x %struct.book], [1000 x %struct.book]* %1, i64 0, i64 %96
  %98 = getelementptr inbounds %struct.book, %struct.book* %97, i32 0, i32 1
  %99 = load i32, i32* %4, align 4
  %100 = sext i32 %99 to i64
  %101 = getelementptr inbounds [100 x i8], [100 x i8]* %98, i64 0, i64 %100
  %102 = load i8, i8* %101, align 1
  %103 = load i32, i32* %6, align 4
  %104 = sub nsw i32 %103, 1
  %105 = sext i32 %104 to i64
  %106 = getelementptr inbounds [27 x i8], [27 x i8]* %10, i64 0, i64 %105
  store i8 %102, i8* %106, align 1
  %107 = load i32, i32* %6, align 4
  %108 = sub nsw i32 %107, 1
  %109 = sext i32 %108 to i64
  %110 = getelementptr inbounds [1000 x i32], [1000 x i32]* %9, i64 0, i64 %109
  store i32 1, i32* %110, align 4
  br label %111

111:                                              ; preds = %92, %89
  br label %112

112:                                              ; preds = %111
  %113 = load i32, i32* %4, align 4
  %114 = add nsw i32 %113, 1
  store i32 %114, i32* %4, align 4
  br label %43

115:                                              ; preds = %43
  br label %116

116:                                              ; preds = %115
  %117 = load i32, i32* %3, align 4
  %118 = add nsw i32 %117, 1
  store i32 %118, i32* %3, align 4
  br label %38

119:                                              ; preds = %38
  %120 = getelementptr inbounds [1000 x i32], [1000 x i32]* %9, i64 0, i64 0
  %121 = load i32, i32* %120, align 16
  store i32 %121, i32* %7, align 4
  store i32 0, i32* %8, align 4
  store i32 0, i32* %3, align 4
  br label %122

122:                                              ; preds = %140, %119
  %123 = load i32, i32* %3, align 4
  %124 = load i32, i32* %6, align 4
  %125 = icmp slt i32 %123, %124
  br i1 %125, label %126, label %143

126:                                              ; preds = %122
  %127 = load i32, i32* %3, align 4
  %128 = sext i32 %127 to i64
  %129 = getelementptr inbounds [1000 x i32], [1000 x i32]* %9, i64 0, i64 %128
  %130 = load i32, i32* %129, align 4
  %131 = load i32, i32* %7, align 4
  %132 = icmp sgt i32 %130, %131
  br i1 %132, label %133, label %139

133:                                              ; preds = %126
  %134 = load i32, i32* %3, align 4
  %135 = sext i32 %134 to i64
  %136 = getelementptr inbounds [1000 x i32], [1000 x i32]* %9, i64 0, i64 %135
  %137 = load i32, i32* %136, align 4
  store i32 %137, i32* %7, align 4
  %138 = load i32, i32* %3, align 4
  store i32 %138, i32* %8, align 4
  br label %139

139:                                              ; preds = %133, %126
  br label %140

140:                                              ; preds = %139
  %141 = load i32, i32* %3, align 4
  %142 = add nsw i32 %141, 1
  store i32 %142, i32* %3, align 4
  br label %122

143:                                              ; preds = %122
  %144 = load i32, i32* %8, align 4
  %145 = sext i32 %144 to i64
  %146 = getelementptr inbounds [27 x i8], [27 x i8]* %10, i64 0, i64 %145
  %147 = load i8, i8* %146, align 1
  %148 = sext i8 %147 to i32
  %149 = load i32, i32* %7, align 4
  %150 = call i32 (i8*, ...) @printf(i8* getelementptr inbounds ([7 x i8], [7 x i8]* @.str.2, i64 0, i64 0), i32 %148, i32 %149)
  store i32 0, i32* %3, align 4
  br label %151

151:                                              ; preds = %195, %143
  %152 = load i32, i32* %3, align 4
  %153 = load i32, i32* %2, align 4
  %154 = icmp slt i32 %152, %153
  br i1 %154, label %155, label %198

155:                                              ; preds = %151
  store i32 0, i32* %4, align 4
  br label %156

156:                                              ; preds = %191, %155
  %157 = load i32, i32* %3, align 4
  %158 = sext i32 %157 to i64
  %159 = getelementptr inbounds [1000 x %struct.book], [1000 x %struct.book]* %1, i64 0, i64 %158
  %160 = getelementptr inbounds %struct.book, %struct.book* %159, i32 0, i32 1
  %161 = load i32, i32* %4, align 4
  %162 = sext i32 %161 to i64
  %163 = getelementptr inbounds [100 x i8], [100 x i8]* %160, i64 0, i64 %162
  %164 = load i8, i8* %163, align 1
  %165 = sext i8 %164 to i32
  %166 = icmp ne i32 %165, 0
  br i1 %166, label %167, label %194

167:                                              ; preds = %156
  %168 = load i32, i32* %3, align 4
  %169 = sext i32 %168 to i64
  %170 = getelementptr inbounds [1000 x %struct.book], [1000 x %struct.book]* %1, i64 0, i64 %169
  %171 = getelementptr inbounds %struct.book, %struct.book* %170, i32 0, i32 1
  %172 = load i32, i32* %4, align 4
  %173 = sext i32 %172 to i64
  %174 = getelementptr inbounds [100 x i8], [100 x i8]* %171, i64 0, i64 %173
  %175 = load i8, i8* %174, align 1
  %176 = sext i8 %175 to i32
  %177 = load i32, i32* %8, align 4
  %178 = sext i32 %177 to i64
  %179 = getelementptr inbounds [27 x i8], [27 x i8]* %10, i64 0, i64 %178
  %180 = load i8, i8* %179, align 1
  %181 = sext i8 %180 to i32
  %182 = icmp eq i32 %176, %181
  br i1 %182, label %183, label %190

183:                                              ; preds = %167
  %184 = load i32, i32* %3, align 4
  %185 = sext i32 %184 to i64
  %186 = getelementptr inbounds [1000 x %struct.book], [1000 x %struct.book]* %1, i64 0, i64 %185
  %187 = getelementptr inbounds %struct.book, %struct.book* %186, i32 0, i32 0
  %188 = load i32, i32* %187, align 8
  %189 = call i32 (i8*, ...) @printf(i8* getelementptr inbounds ([4 x i8], [4 x i8]* @.str.3, i64 0, i64 0), i32 %188)
  br label %194

190:                                              ; preds = %167
  br label %191

191:                                              ; preds = %190
  %192 = load i32, i32* %4, align 4
  %193 = add nsw i32 %192, 1
  store i32 %193, i32* %4, align 4
  br label %156

194:                                              ; preds = %183, %156
  br label %195

195:                                              ; preds = %194
  %196 = load i32, i32* %3, align 4
  %197 = add nsw i32 %196, 1
  store i32 %197, i32* %3, align 4
  br label %151

198:                                              ; preds = %151
  ret void
}

declare dso_local i32 @__isoc99_scanf(i8*, ...) #1

declare dso_local i32 @printf(i8*, ...) #1


!llvm.module.flags = !{!0}
!llvm.ident = !{!1}

!0 = !{i32 1, !"wchar_size", i32 4}
!1 = !{!"clang version 10.0.0-4ubuntu1 "}
